target datalayout = "e-m:e-p270:32:32-p271:32:32-p272:64:64-i64:64-i128:128-f80:128-n8:16:32:64-S128"
target triple = "x86_64-pc-linux-gnu"

%struct.RBTree = type { ptr, i64, ptr, ptr, ptr, ptr, ptr }
%struct.RBTreeIterator = type { ptr, ptr, ptr, i8 }

@.str = private unnamed_addr constant [40 x i8] c"unrecognized rbtree iteration order: %d\00", align 1
@.str.1 = private unnamed_addr constant [9 x i8] c"rbtree.c\00", align 1
@__func__.rbt_begin_iterate = private unnamed_addr constant [18 x i8] c"rbt_begin_iterate\00", align 1
@sentinel = internal global { i8, [7 x i8], ptr, ptr, ptr } { i8 0, [7 x i8] zeroinitializer, ptr @sentinel, ptr @sentinel, ptr null }, align 8

; Function Attrs: nounwind uwtable
define dso_local void @rbt_begin_iterate(ptr noundef %0, i32 noundef %1, ptr noundef %2) #0 {
  %4 = alloca ptr, align 8
  %5 = alloca i32, align 4
  %6 = alloca ptr, align 8
  store ptr %0, ptr %4, align 8
  store i32 %1, ptr %5, align 4
  store ptr %2, ptr %6, align 8
  %7 = load ptr, ptr %4, align 8
  %8 = load ptr, ptr %6, align 8
  %9 = getelementptr inbounds nuw %struct.RBTreeIterator, ptr %8, i32 0, i32 0
  store ptr %7, ptr %9, align 8
  %10 = load ptr, ptr %6, align 8
  %11 = getelementptr inbounds nuw %struct.RBTreeIterator, ptr %10, i32 0, i32 2
  store ptr null, ptr %11, align 8
  %12 = load ptr, ptr %4, align 8
  %13 = getelementptr inbounds nuw %struct.RBTree, ptr %12, i32 0, i32 0
  %14 = load ptr, ptr %13, align 8
  %15 = icmp eq ptr %14, @sentinel
  %16 = load ptr, ptr %6, align 8
  %17 = getelementptr inbounds nuw %struct.RBTreeIterator, ptr %16, i32 0, i32 3
  %18 = zext i1 %15 to i8
  store i8 %18, ptr %17, align 8
  %19 = load i32, ptr %5, align 4
  switch i32 %19, label %26 [
    i32 0, label %20
    i32 1, label %23
  ]

20:                                               ; preds = %3
  %21 = load ptr, ptr %6, align 8
  %22 = getelementptr inbounds nuw %struct.RBTreeIterator, ptr %21, i32 0, i32 1
  store ptr @rbt_left_right_iterator, ptr %22, align 8
  br label %37

23:                                               ; preds = %3
  %24 = load ptr, ptr %6, align 8
  %25 = getelementptr inbounds nuw %struct.RBTreeIterator, ptr %24, i32 0, i32 1
  store ptr @rbt_right_left_iterator, ptr %25, align 8
  br label %37

26:                                               ; preds = %3
  br label %27

27:                                               ; preds = %26
  br i1 true, label %28, label %30

28:                                               ; preds = %27
  %29 = call zeroext i1 @errstart_cold(i32 noundef 21, ptr noundef null) #7
  br i1 %29, label %32, label %35

30:                                               ; preds = %27
  %31 = call zeroext i1 @errstart(i32 noundef 21, ptr noundef null)
  br i1 %31, label %32, label %35

32:                                               ; preds = %30, %28
  %33 = load i32, ptr %5, align 4
  %34 = call i32 (ptr, ...) @errmsg_internal(ptr noundef @.str, i32 noundef %33)
  call void @errfinish(ptr noundef @.str.1, i32 noundef 818, ptr noundef @__func__.rbt_begin_iterate)
  br label %35

35:                                               ; preds = %32, %30, %28
  unreachable

36:                                               ; No predecessors!
  br label %37

37:                                               ; preds = %36, %23, %20
  ret void
}