; Function Attrs: nounwind uwtable
define dso_local void @rbt_begin_iterate(ptr noundef %0, i32 noundef %1, ptr noundef writeonly captures(none) initializes((0, 8), (16, 25)) %2) local_unnamed_addr #0 {
  store ptr %0, ptr %2, align 8
  %4 = getelementptr inbounds nuw i8, ptr %2, i64 16
  store ptr null, ptr %4, align 8
  %5 = load ptr, ptr %0, align 8
  %6 = icmp eq ptr %5, @sentinel
  %7 = getelementptr inbounds nuw i8, ptr %2, i64 24
  %8 = zext i1 %6 to i8
  store i8 %8, ptr %7, align 8
  switch i32 %1, label %10 [
    i32 0, label %13
    i32 1, label %9
  ]

9:                                                ; preds = %3
  br label %13

10:                                               ; preds = %3
  %11 = tail call zeroext i1 @errstart_cold(i32 noundef 21, ptr noundef null) #8
  tail call void @llvm.assume(i1 %11)
  %12 = tail call i32 (ptr, ...) @errmsg_internal(ptr noundef nonnull @.str, i32 noundef %1) #7
  tail call void @errfinish(ptr noundef nonnull @.str.1, i32 noundef 818, ptr noundef nonnull @__func__.rbt_begin_iterate) #7
  unreachable

13:                                               ; preds = %3, %9
  %rbt_right_left_iterator.sink = phi ptr [ @rbt_right_left_iterator, %9 ], [ @rbt_left_right_iterator, %3 ]
  %14 = getelementptr inbounds nuw i8, ptr %2, i64 8
  store ptr %rbt_right_left_iterator.sink, ptr %14, align 8
  ret void
}